(dp1
S'n02110341'
p2
I7
sS'n02113712'
p3
I11
sS'n02701002'
p4
I42
sS'n02086079'
p5
I15
sS'n02124075'
p6
I3
sS'n03777568'
p7
I49
sS'n01807496'
p8
I57
sS'n01796340'
p9
I52
sS'n02106166'
p10
I22
sS'n04524313'
p11
I63
sS'n02123394'
p12
I4
sS'n04037443'
p13
I50
sS'n01503061'
p14
I62
sS'n01797886'
p15
I53
sS'n02093256'
p16
I8
sS'n01795545'
p17
I51
sS'n02094433'
p18
I13
sS'n02108089'
p19
I24
sS'n02100877'
p20
I34
sS'n02112497'
p21
I25
sS'n02090827'
p22
I23
sS'n02092002'
p23
I6
sS'n02085620'
p24
I31
sS'n03670208'
p25
I47
sS'n02112826'
p26
I9
sS'n03594945'
p27
I46
sS'n02099601'
p28
I21
sS'n02107142'
p29
I20
sS'n02106382'
p30
I10
sS'n02109047'
p31
I5
sS'n02108551'
p32
I19
sS'n02101006'
p33
I30
sS'n02099267'
p34
I26
sS'n03344393'
p35
I37
sS'n03100240'
p36
I45
sS'n01806567'
p37
I56
sS'n02106662'
p38
I36
sS'n02951358'
p39
I41
sS'n04273569'
p40
I39
sS'n02096294'
p41
I2
sS'n02858304'
p42
I60
sS'n02087394'
p43
I35
sS'n03770679'
p44
I48
sS'n02100735'
p45
I1
sS'n02110806'
p46
I16
sS'n02123045'
p47
I32
sS'n00002684'
p48
I65
sS'n01798484'
p49
I54
sS'n02109961'
p50
I27
sS'n03447447'
p51
I38
sS'n02101388'
p52
I28
sS'n02113799'
p53
I29
sS'n02123597'
p54
I18
sS'n00015388'
p55
I64
sS'n02958343'
p56
I61
sS'n02123159'
p57
I12
sS'n02100583'
p58
I17
sS'n03662601'
p59
I40
sS'n02930766'
p60
I44
sS'n02111277'
p61
I14
sS'n02814533'
p62
I43
sS'n02109525'
p63
I33
sS'n01803078'
p64
I55
sS'n02121808'
p65
I58
sS'n02084071'
p66
I59
s.